target datalayout = "e-m:e-p270:32:32-p271:32:32-p272:64:64-i64:64-i128:128-f80:128-n8:16:32:64-S128"
target triple = "x86_64-pc-linux-gnu"

%struct.cli_bc_type = type { i32, ptr, i32, i32, i32 }

@.str.277 = private unnamed_addr constant [35 x i8] c"Out of memory allocating %u types\0A\00", align 1
@.str.278 = private unnamed_addr constant [25 x i8] c"Invalid number type: %c\0A\00", align 1
@.str.279 = private unnamed_addr constant [46 x i8] c"End of line encountered while reading number\0A\00", align 1
@.str.280 = private unnamed_addr constant [25 x i8] c"Invalid number part: %c\0A\00", align 1
@.str.294 = private unnamed_addr constant [20 x i8] c"Error parsing type\0A\00", align 1

; Function Attrs: nounwind uwtable
define internal i64 @readNumber(ptr noundef %0, ptr noundef %1, i32 noundef %2, ptr noundef %3) #0 {
  %5 = alloca i64, align 8
  %6 = alloca ptr, align 8
  %7 = alloca ptr, align 8
  %8 = alloca i32, align 4
  %9 = alloca ptr, align 8
  %10 = alloca i64, align 8
  %11 = alloca i32, align 4
  %12 = alloca i32, align 4
  %13 = alloca i32, align 4
  %14 = alloca i32, align 4
  %15 = alloca i32, align 4
  %16 = alloca i64, align 8
  store ptr %0, ptr %6, align 8
  store ptr %1, ptr %7, align 8
  store i32 %2, ptr %8, align 4
  store ptr %3, ptr %9, align 8
  store i64 0, ptr %10, align 8
  %17 = load ptr, ptr %6, align 8
  %18 = load ptr, ptr %7, align 8
  %19 = load i32, ptr %18, align 4
  %20 = zext i32 %19 to i64
  %21 = getelementptr inbounds i8, ptr %17, i64 %20
  %22 = load i8, ptr %21, align 1
  %23 = zext i8 %22 to i32
  store i32 %23, ptr %14, align 4
  store i32 0, ptr %15, align 4
  %24 = load i32, ptr %14, align 4
  %25 = sub i32 %24, 96
  store i32 %25, ptr %13, align 4
  %26 = load i32, ptr %13, align 4
  %27 = icmp ugt i32 %26, 16
  br i1 %27, label %28, label %31

28:                                               ; preds = %4
  %29 = load i32, ptr %14, align 4
  call void (ptr, ...) @cli_errmsg(ptr noundef @.str.278, i32 noundef %29)
  %30 = load ptr, ptr %9, align 8
  store i8 0, ptr %30, align 1
  store i64 0, ptr %5, align 8
  br label %95

31:                                               ; preds = %4
  %32 = load ptr, ptr %7, align 8
  %33 = load i32, ptr %32, align 4
  %34 = load i32, ptr %13, align 4
  %35 = add i32 %33, %34
  %36 = add i32 %35, 1
  store i32 %36, ptr %12, align 4
  %37 = load i32, ptr %12, align 4
  %38 = load i32, ptr %8, align 4
  %39 = icmp ugt i32 %37, %38
  br i1 %39, label %40, label %42

40:                                               ; preds = %31
  call void (ptr, ...) @cli_errmsg(ptr noundef @.str.279)
  %41 = load ptr, ptr %9, align 8
  store i8 0, ptr %41, align 1
  store i64 0, ptr %5, align 8
  br label %95

42:                                               ; preds = %31
  %43 = load i32, ptr %14, align 4
  %44 = icmp eq i32 %43, 96
  br i1 %44, label %45, label %48

45:                                               ; preds = %42
  %46 = load i32, ptr %12, align 4
  %47 = load ptr, ptr %7, align 8
  store i32 %46, ptr %47, align 4
  store i64 0, ptr %5, align 8
  br label %95

48:                                               ; preds = %42
  %49 = load ptr, ptr %7, align 8
  %50 = load i32, ptr %49, align 4
  %51 = add i32 %50, 1
  store i32 %51, ptr %11, align 4
  br label %52

52:                                               ; preds = %88, %48
  %53 = load i32, ptr %11, align 4
  %54 = load i32, ptr %12, align 4
  %55 = icmp ult i32 %53, %54
  br i1 %55, label %56, label %91

56:                                               ; preds = %52
  %57 = load ptr, ptr %6, align 8
  %58 = load i32, ptr %11, align 4
  %59 = zext i32 %58 to i64
  %60 = getelementptr inbounds i8, ptr %57, i64 %59
  %61 = load i8, ptr %60, align 1
  %62 = zext i8 %61 to i64
  store i64 %62, ptr %16, align 8
  %63 = load i64, ptr %16, align 8
  %64 = and i64 %63, 240
  %65 = icmp ne i64 %64, 96
  %66 = xor i1 %65, true
  %67 = xor i1 %66, true
  %68 = zext i1 %67 to i32
  %69 = sext i32 %68 to i64
  %70 = icmp ne i64 %69, 0
  br i1 %70, label %71, label %76

71:                                               ; preds = %56
  %72 = load i64, ptr %16, align 8
  %73 = trunc i64 %72 to i8
  %74 = sext i8 %73 to i32
  call void (ptr, ...) @cli_errmsg(ptr noundef @.str.280, i32 noundef %74)
  %75 = load ptr, ptr %9, align 8
  store i8 0, ptr %75, align 1
  store i64 0, ptr %5, align 8
  br label %95

76:                                               ; preds = %56
  %77 = load i64, ptr %16, align 8
  %78 = and i64 %77, 15
  store i64 %78, ptr %16, align 8
  %79 = load i32, ptr %15, align 4
  %80 = load i64, ptr %16, align 8
  %81 = zext i32 %79 to i64
  %82 = shl i64 %80, %81
  store i64 %82, ptr %16, align 8
  %83 = load i64, ptr %16, align 8
  %84 = load i64, ptr %10, align 8
  %85 = or i64 %84, %83
  store i64 %85, ptr %10, align 8
  %86 = load i32, ptr %15, align 4
  %87 = add i32 %86, 4
  store i32 %87, ptr %15, align 4
  br label %88

88:                                               ; preds = %76
  %89 = load i32, ptr %11, align 4
  %90 = add i32 %89, 1
  store i32 %90, ptr %11, align 4
  br label %52

91:                                               ; preds = %52
  %92 = load i32, ptr %12, align 4
  %93 = load ptr, ptr %7, align 8
  store i32 %92, ptr %93, align 4
  %94 = load i64, ptr %10, align 8
  store i64 %94, ptr %5, align 8
  br label %95

95:                                               ; preds = %91, %71, %45, %40, %28
  %96 = load i64, ptr %5, align 8
  ret i64 %96
}

; Function Attrs: nounwind uwtable
define internal void @parseType(ptr noundef %0, ptr noundef %1, ptr noundef %2, ptr noundef %3, i32 noundef %4, ptr noundef %5) #0 {
  %7 = alloca ptr, align 8
  %8 = alloca ptr, align 8
  %9 = alloca ptr, align 8
  %10 = alloca ptr, align 8
  %11 = alloca i32, align 4
  %12 = alloca ptr, align 8
  %13 = alloca i32, align 4
  store ptr %0, ptr %7, align 8
  store ptr %1, ptr %8, align 8
  store ptr %2, ptr %9, align 8
  store ptr %3, ptr %10, align 8
  store i32 %4, ptr %11, align 4
  store ptr %5, ptr %12, align 8
  %14 = load ptr, ptr %9, align 8
  %15 = load ptr, ptr %10, align 8
  %16 = load i32, ptr %11, align 4
  %17 = load ptr, ptr %12, align 8
  %18 = call i64 @readNumber(ptr noundef %14, ptr noundef %15, i32 noundef %16, ptr noundef %17)
  %19 = trunc i64 %18 to i32
  %20 = load ptr, ptr %8, align 8
  %21 = getelementptr inbounds %struct.cli_bc_type, ptr %20, i32 0, i32 2
  store i32 %19, ptr %21, align 8
  %22 = load ptr, ptr %12, align 8
  %23 = load i8, ptr %22, align 1
  %24 = trunc i8 %23 to i1
  br i1 %24, label %27, label %25

25:                                               ; preds = %6
  call void (ptr, ...) @cli_errmsg(ptr noundef @.str.294)
  %26 = load ptr, ptr %12, align 8
  store i8 0, ptr %26, align 1
  br label %68

27:                                               ; preds = %6
  %28 = load ptr, ptr %8, align 8
  %29 = getelementptr inbounds %struct.cli_bc_type, ptr %28, i32 0, i32 2
  %30 = load i32, ptr %29, align 8
  %31 = zext i32 %30 to i64
  %32 = mul i64 2, %31
  %33 = call noalias ptr @malloc(i64 noundef %32) #11
  %34 = load ptr, ptr %8, align 8
  %35 = getelementptr inbounds %struct.cli_bc_type, ptr %34, i32 0, i32 1
  store ptr %33, ptr %35, align 8
  %36 = load ptr, ptr %8, align 8
  %37 = getelementptr inbounds %struct.cli_bc_type, ptr %36, i32 0, i32 1
  %38 = load ptr, ptr %37, align 8
  %39 = icmp ne ptr %38, null
  br i1 %39, label %45, label %40

40:                                               ; preds = %27
  %41 = load ptr, ptr %8, align 8
  %42 = getelementptr inbounds %struct.cli_bc_type, ptr %41, i32 0, i32 2
  %43 = load i32, ptr %42, align 8
  call void (ptr, ...) @cli_errmsg(ptr noundef @.str.277, i32 noundef %43)
  %44 = load ptr, ptr %12, align 8
  store i8 0, ptr %44, align 1
  br label %68

45:                                               ; preds = %27
  store i32 0, ptr %13, align 4
  br label %46

46:                                               ; preds = %65, %45
  %47 = load i32, ptr %13, align 4
  %48 = load ptr, ptr %8, align 8
  %49 = getelementptr inbounds %struct.cli_bc_type, ptr %48, i32 0, i32 2
  %50 = load i32, ptr %49, align 8
  %51 = icmp ult i32 %47, %50
  br i1 %51, label %52, label %68

52:                                               ; preds = %46
  %53 = load ptr, ptr %7, align 8
  %54 = load ptr, ptr %9, align 8
  %55 = load ptr, ptr %10, align 8
  %56 = load i32, ptr %11, align 4
  %57 = load ptr, ptr %12, align 8
  %58 = call zeroext i16 @readTypeID(ptr noundef %53, ptr noundef %54, ptr noundef %55, i32 noundef %56, ptr noundef %57)
  %59 = load ptr, ptr %8, align 8
  %60 = getelementptr inbounds %struct.cli_bc_type, ptr %59, i32 0, i32 1
  %61 = load ptr, ptr %60, align 8
  %62 = load i32, ptr %13, align 4
  %63 = zext i32 %62 to i64
  %64 = getelementptr inbounds i16, ptr %61, i64 %63
  store i16 %58, ptr %64, align 2
  br label %65

65:                                               ; preds = %52
  %66 = load i32, ptr %13, align 4
  %67 = add i32 %66, 1
  store i32 %67, ptr %13, align 4
  br label %46

68:                                               ; preds = %46, %40, %25
  ret void
}