; Function Attrs: nounwind uwtable
define internal fastcc void @parseType(ptr nocapture noundef readonly %0, ptr nocapture noundef %1, ptr nocapture noundef readonly %2, ptr nocapture noundef %3, i32 noundef %4, ptr noundef %5) unnamed_addr #0 {
  %7 = load i32, ptr %3, align 4
  %8 = zext i32 %7 to i64
  %9 = getelementptr inbounds i8, ptr %2, i64 %8
  %10 = load i8, ptr %9, align 1
  %11 = zext i8 %10 to i32
  %12 = add nsw i32 %11, -96
  %13 = icmp ugt i32 %12, 16
  br i1 %13, label %14, label %15

14:                                               ; preds = %6
  tail call void (ptr, ...) @cli_errmsg(ptr noundef nonnull @.str.278, i32 noundef %11) #25
  store i8 0, ptr %5, align 1
  br label %readNumber.exit

15:                                               ; preds = %6
  %16 = add i32 %7, 1
  %17 = add i32 %12, %16
  %18 = icmp ugt i32 %17, %4
  br i1 %18, label %19, label %20

19:                                               ; preds = %15
  tail call void (ptr, ...) @cli_errmsg(ptr noundef nonnull @.str.279) #25
  store i8 0, ptr %5, align 1
  br label %readNumber.exit

20:                                               ; preds = %15
  %21 = icmp eq i8 %10, 96
  br i1 %21, label %25, label %.preheader.i

.preheader.i:                                     ; preds = %20
  %22 = icmp ult i32 %16, %17
  br i1 %22, label %.lr.ph.i.preheader, label %._crit_edge.i

.lr.ph.i.preheader:                               ; preds = %.preheader.i
  %23 = zext i32 %16 to i64
  %24 = zext i32 %17 to i64
  br label %.lr.ph.i

25:                                               ; preds = %20
  store i32 %17, ptr %3, align 4
  br label %readNumber.exit

.lr.ph.i:                                         ; preds = %.lr.ph.i.preheader, %32
  %indvars.iv = phi i64 [ %23, %.lr.ph.i.preheader ], [ %indvars.iv.next, %32 ]
  %.040.i = phi i32 [ 0, %.lr.ph.i.preheader ], [ %37, %32 ]
  %.03339.i = phi i64 [ 0, %.lr.ph.i.preheader ], [ %36, %32 ]
  %26 = getelementptr inbounds i8, ptr %2, i64 %indvars.iv
  %27 = load i8, ptr %26, align 1
  %28 = zext i8 %27 to i64
  %29 = and i64 %28, 240
  %.not.i = icmp eq i64 %29, 96
  br i1 %.not.i, label %32, label %30

30:                                               ; preds = %.lr.ph.i
  %31 = sext i8 %27 to i32
  tail call void (ptr, ...) @cli_errmsg(ptr noundef nonnull @.str.280, i32 noundef %31) #25
  store i8 0, ptr %5, align 1
  br label %readNumber.exit

32:                                               ; preds = %.lr.ph.i
  %33 = and i64 %28, 15
  %34 = zext nneg i32 %.040.i to i64
  %35 = shl i64 %33, %34
  %36 = or i64 %35, %.03339.i
  %37 = add i32 %.040.i, 4
  %indvars.iv.next = add nuw nsw i64 %indvars.iv, 1
  %exitcond.not.i = icmp eq i64 %indvars.iv.next, %24
  br i1 %exitcond.not.i, label %._crit_edge.i, label %.lr.ph.i

._crit_edge.i:                                    ; preds = %32, %.preheader.i
  %.033.lcssa.i = phi i64 [ 0, %.preheader.i ], [ %36, %32 ]
  store i32 %17, ptr %3, align 4
  br label %readNumber.exit

readNumber.exit:                                  ; preds = %14, %19, %25, %30, %._crit_edge.i
  %.032.i = phi i64 [ 0, %14 ], [ 0, %19 ], [ 0, %25 ], [ 0, %30 ], [ %.033.lcssa.i, %._crit_edge.i ]
  %38 = trunc i64 %.032.i to i32
  %39 = getelementptr inbounds i8, ptr %1, i64 16
  store i32 %38, ptr %39, align 8
  %40 = load i8, ptr %5, align 1
  %41 = trunc i8 %40 to i1
  br i1 %41, label %43, label %42

42:                                               ; preds = %readNumber.exit
  tail call void (ptr, ...) @cli_errmsg(ptr noundef nonnull @.str.294) #25
  br label %.loopexit.sink.split

43:                                               ; preds = %readNumber.exit
  %44 = shl i64 %.032.i, 1
  %45 = and i64 %44, 8589934590
  %46 = tail call noalias ptr @malloc(i64 noundef %45) #26
  %47 = getelementptr inbounds i8, ptr %1, i64 8
  store ptr %46, ptr %47, align 8
  %.not = icmp eq ptr %46, null
  br i1 %.not, label %48, label %.preheader

.preheader:                                       ; preds = %43
  %.not24 = icmp eq i32 %38, 0
  br i1 %.not24, label %.loopexit, label %.lr.ph

48:                                               ; preds = %43
  tail call void (ptr, ...) @cli_errmsg(ptr noundef nonnull @.str.277, i32 noundef %38) #25
  br label %.loopexit.sink.split

.lr.ph:                                           ; preds = %.preheader, %.lr.ph
  %indvars.iv28 = phi i64 [ %indvars.iv.next29, %.lr.ph ], [ 0, %.preheader ]
  %49 = tail call fastcc zeroext i16 @readTypeID(ptr noundef %0, ptr noundef %2, ptr noundef nonnull %3, i32 noundef %4, ptr noundef nonnull %5)
  %50 = load ptr, ptr %47, align 8
  %51 = getelementptr inbounds i16, ptr %50, i64 %indvars.iv28
  store i16 %49, ptr %51, align 2
  %indvars.iv.next29 = add nuw nsw i64 %indvars.iv28, 1
  %52 = load i32, ptr %39, align 8
  %53 = zext i32 %52 to i64
  %54 = icmp ult i64 %indvars.iv.next29, %53
  br i1 %54, label %.lr.ph, label %.loopexit

.loopexit.sink.split:                             ; preds = %42, %48
  store i8 0, ptr %5, align 1
  br label %.loopexit

.loopexit:                                        ; preds = %.lr.ph, %.loopexit.sink.split, %.preheader
  ret void
}